target datalayout = "e-m:e-p270:32:32-p271:32:32-p272:64:64-i64:64-i128:128-f80:128-n8:16:32:64-S128"
target triple = "x86_64-pc-linux-gnu"

@hf_ndmp_file_stats = internal global i32 0, align 4
@hf_ndmp_file_node = internal global i32 0, align 4
@hf_ndmp_file_fh_info = internal global i32 0, align 4

; Function Attrs: null_pointer_is_valid sspstrong uwtable
define internal i32 @dissect_node(ptr noundef %0, i32 noundef %1, ptr noundef %2, ptr noundef %3, ptr noundef %4) #0 {
  %6 = alloca ptr, align 8
  %7 = alloca i32, align 4
  %8 = alloca ptr, align 8
  %9 = alloca ptr, align 8
  %10 = alloca ptr, align 8
  store ptr %0, ptr %6, align 8
  store i32 %1, ptr %7, align 4
  store ptr %2, ptr %8, align 8
  store ptr %3, ptr %9, align 8
  store ptr %4, ptr %10, align 8
  %11 = load ptr, ptr %6, align 8
  %12 = load ptr, ptr %8, align 8
  %13 = load ptr, ptr %9, align 8
  %14 = load i32, ptr %7, align 4
  %15 = load i32, ptr @hf_ndmp_file_stats, align 4
  %16 = call i32 @dissect_rpc_array(ptr noundef %11, ptr noundef %12, ptr noundef %13, i32 noundef %14, ptr noundef @dissect_file_stats, i32 noundef %15)
  store i32 %16, ptr %7, align 4
  %17 = load ptr, ptr %9, align 8
  %18 = load i32, ptr @hf_ndmp_file_node, align 4
  %19 = load ptr, ptr %6, align 8
  %20 = load i32, ptr %7, align 4
  %21 = call ptr @proto_tree_add_item(ptr noundef %17, i32 noundef %18, ptr noundef %19, i32 noundef %20, i32 noundef 8, i32 noundef 0)
  %22 = load i32, ptr %7, align 4
  %23 = add i32 %22, 8
  store i32 %23, ptr %7, align 4
  %24 = load ptr, ptr %9, align 8
  %25 = load i32, ptr @hf_ndmp_file_fh_info, align 4
  %26 = load ptr, ptr %6, align 8
  %27 = load i32, ptr %7, align 4
  %28 = call ptr @proto_tree_add_item(ptr noundef %24, i32 noundef %25, ptr noundef %26, i32 noundef %27, i32 noundef 8, i32 noundef 0)
  %29 = load i32, ptr %7, align 4
  %30 = add i32 %29, 8
  store i32 %30, ptr %7, align 4
  %31 = load i32, ptr %7, align 4
  ret i32 %31
}